Certificate:
    Data:
        Version: 1 (0x0)
        Serial Number: 1 (0x1)
        Signature Algorithm: sha512WithRSAEncryption
        Issuer: C=US, ST=CA, O=Open vSwitch, OU=controllerca, CN=OVS controllerca CA Certificate (2019 Dec 23 09:50:12)
        Validity
            Not Before: Dec 23 09:50:12 2019 GMT
            Not After : Dec 20 09:50:12 2029 GMT
        Subject: C=US, ST=CA, O=Open vSwitch, OU=controllerca, CN=OVS controllerca CA Certificate (2019 Dec 23 09:50:12)
        Subject Public Key Info:
            Public Key Algorithm: rsaEncryption
                RSA Public-Key: (2048 bit)
                Modulus:
                    00:d1:a0:6c:72:3c:68:21:98:b1:82:cf:07:63:1f:
                    55:d5:4c:fe:00:70:96:ca:a6:5b:c7:3e:2e:6b:c0:
                    f2:b9:f3:5b:a2:b0:71:e2:15:bd:c2:a1:ee:5d:45:
                    d7:a0:13:73:b2:b3:12:94:a2:f5:da:79:b2:3b:3c:
                    36:75:bf:1b:0a:f3:8d:87:b9:00:7b:bf:5b:93:79:
                    00:0a:1c:be:3e:54:ca:97:e7:3d:97:f6:9c:cb:b7:
                    78:4e:17:4a:50:7f:18:65:36:fe:da:a8:77:fc:d4:
                    20:a0:f7:f8:8e:13:b9:07:79:c8:4e:d4:6f:ef:61:
                    9c:84:8e:0b:ab:fe:7f:72:cc:cc:2c:e1:03:72:40:
                    ed:a9:ce:17:88:bb:e9:5d:c6:f0:ef:5b:fb:5d:7c:
                    7c:43:15:2b:d8:b7:ed:1a:50:94:63:2d:71:86:95:
                    74:57:48:14:21:4b:e2:f4:dc:2f:8c:0b:ed:25:97:
                    2a:c5:ac:20:78:08:6d:a5:f2:cd:85:ba:6b:58:fd:
                    49:af:14:83:eb:69:96:85:f1:77:29:e2:ab:ce:49:
                    95:47:6e:02:f1:68:f5:1c:c9:73:c1:54:14:d2:c6:
                    df:90:34:d1:e8:c7:63:db:0b:50:8b:cc:0a:e8:1f:
                    a5:cc:ff:0a:e2:af:5b:79:5e:20:13:55:1b:3c:e1:
                    d6:8d
                Exponent: 65537 (0x10001)
    Signature Algorithm: sha512WithRSAEncryption
         5a:98:38:31:3a:f9:12:db:34:7f:5f:78:42:f6:85:f8:26:b2:
         b9:a9:46:e6:63:a5:b1:ba:0f:80:fc:09:b9:c6:9e:aa:69:83:
         d1:93:50:ef:a9:d1:25:b4:5f:99:40:1b:84:23:e4:57:90:09:
         c6:ce:7b:99:1d:64:7e:81:af:71:2b:df:a9:ee:73:22:7a:f5:
         50:fd:fe:17:98:c3:b9:51:b5:af:f2:2f:a1:3a:b4:6d:14:f2:
         a4:d4:5b:2e:63:39:66:6c:6d:d5:3b:ff:43:35:d4:b1:fc:61:
         bb:18:c8:77:3d:01:84:78:dc:22:e7:13:24:15:51:05:12:fd:
         8b:35:bf:40:91:0e:39:5e:ae:08:2a:fe:85:3c:d6:37:3a:14:
         ac:f1:cf:df:a7:c1:de:9d:d9:00:b2:2e:d9:10:12:e1:8a:75:
         31:4d:16:6b:94:c6:c9:2d:80:95:22:04:3a:51:02:e7:ad:af:
         e4:6d:86:07:b6:c1:7d:cf:8d:50:b8:97:7d:5d:9b:a9:9c:f3:
         be:82:73:fb:ab:a3:60:79:c2:90:53:df:52:bc:f1:b7:45:3d:
         57:86:a5:ea:cd:6f:19:04:37:4c:56:9e:46:e8:65:33:07:e5:
         1a:22:fe:85:f2:9b:7b:66:ab:6e:e8:0b:63:ba:a0:46:5c:d1:
         7b:d7:6a:7b
-----BEGIN CERTIFICATE-----
MIIDiDCCAnACAQEwDQYJKoZIhvcNAQENBQAwgYkxCzAJBgNVBAYTAlVTMQswCQYD
VQQIDAJDQTEVMBMGA1UECgwMT3BlbiB2U3dpdGNoMRUwEwYDVQQLDAxjb250cm9s
bGVyY2ExPzA9BgNVBAMMNk9WUyBjb250cm9sbGVyY2EgQ0EgQ2VydGlmaWNhdGUg
KDIwMTkgRGVjIDIzIDA5OjUwOjEyKTAeFw0xOTEyMjMwOTUwMTJaFw0yOTEyMjAw
OTUwMTJaMIGJMQswCQYDVQQGEwJVUzELMAkGA1UECAwCQ0ExFTATBgNVBAoMDE9w
ZW4gdlN3aXRjaDEVMBMGA1UECwwMY29udHJvbGxlcmNhMT8wPQYDVQQDDDZPVlMg
Y29udHJvbGxlcmNhIENBIENlcnRpZmljYXRlICgyMDE5IERlYyAyMyAwOTo1MDox
MikwggEiMA0GCSqGSIb3DQEBAQUAA4IBDwAwggEKAoIBAQDRoGxyPGghmLGCzwdj
H1XVTP4AcJbKplvHPi5rwPK581uisHHiFb3Coe5dRdegE3OysxKUovXaebI7PDZ1
vxsK842HuQB7v1uTeQAKHL4+VMqX5z2X9pzLt3hOF0pQfxhlNv7aqHf81CCg9/iO
E7kHechO1G/vYZyEjgur/n9yzMws4QNyQO2pzheIu+ldxvDvW/tdfHxDFSvYt+0a
UJRjLXGGlXRXSBQhS+L03C+MC+0llyrFrCB4CG2l8s2FumtY/UmvFIPraZaF8Xcp
4qvOSZVHbgLxaPUcyXPBVBTSxt+QNNHox2PbC1CLzAroH6XM/wrir1t5XiATVRs8
4daNAgMBAAEwDQYJKoZIhvcNAQENBQADggEBAFqYODE6+RLbNH9feEL2hfgmsrmp
RuZjpbG6D4D8CbnGnqppg9GTUO+p0SW0X5lAG4Qj5FeQCcbOe5kdZH6Br3Er36nu
cyJ69VD9/heYw7lRta/yL6E6tG0U8qTUWy5jOWZsbdU7/0M11LH8YbsYyHc9AYR4
3CLnEyQVUQUS/Ys1v0CRDjlerggq/oU81jc6FKzxz9+nwd6d2QCyLtkQEuGKdTFN
FmuUxsktgJUiBDpRAuetr+Rthge2wX3PjVC4l31dm6mc876Cc/uro2B5wpBT31K8
8bdFPVeGperNbxkEN0xWnkboZTMH5Roi/oXym3tmq27oC2O6oEZc0XvXans=
-----END CERTIFICATE-----
