Certificate:
    Data:
        Version: 1 (0x0)
        Serial Number: 1 (0x1)
        Signature Algorithm: sha512WithRSAEncryption
        Issuer: C=US, ST=CA, O=Open vSwitch, OU=switchca, CN=OVS switchca CA Certificate (2019 Dec 23 09:50:12)
        Validity
            Not Before: Dec 23 09:50:12 2019 GMT
            Not After : Dec 20 09:50:12 2029 GMT
        Subject: C=US, ST=CA, O=Open vSwitch, OU=switchca, CN=OVS switchca CA Certificate (2019 Dec 23 09:50:12)
        Subject Public Key Info:
            Public Key Algorithm: rsaEncryption
                RSA Public-Key: (2048 bit)
                Modulus:
                    00:a8:4f:35:26:0c:d4:6c:68:1f:15:43:af:82:b5:
                    60:9d:67:66:65:bb:92:e8:66:f6:fe:24:60:db:93:
                    d4:1c:30:4e:f4:05:61:87:82:27:0c:6f:8c:f2:05:
                    13:7f:95:cc:24:df:92:8d:e6:e1:b9:40:1a:aa:b7:
                    fa:35:3b:43:7f:95:a6:2c:8e:1d:d2:00:e0:90:7e:
                    09:a9:8b:54:a2:18:2b:71:1a:44:1c:fc:25:11:e9:
                    6f:20:c6:8d:2a:59:a2:34:51:d8:04:da:29:98:92:
                    e9:ed:56:ba:ef:3d:85:c2:07:91:02:a4:68:df:07:
                    01:5f:c4:39:15:24:cf:9e:f2:7d:ba:0e:15:1a:95:
                    a4:97:74:ea:0e:f9:1b:d4:98:e9:22:11:91:e3:f8:
                    41:e8:84:2e:c0:63:ba:bd:ff:52:7e:ec:93:b6:0b:
                    39:c9:f6:5a:22:44:75:fb:1b:0a:75:74:35:a9:d3:
                    17:9a:e3:f5:cb:7c:88:57:78:de:72:f2:46:55:a0:
                    ba:47:99:8b:79:00:b3:4d:8e:b1:61:5f:c4:8a:3d:
                    d7:50:47:82:2e:b5:13:99:19:82:89:de:67:79:3d:
                    c4:45:00:c4:d3:c7:bf:62:7e:f7:87:ce:ae:19:de:
                    5b:0f:c3:38:bc:af:2a:89:66:96:0f:7f:7e:c4:ac:
                    98:85
                Exponent: 65537 (0x10001)
    Signature Algorithm: sha512WithRSAEncryption
         3d:a0:a4:0a:77:44:13:e7:57:ca:27:65:9a:f7:2b:fd:42:47:
         70:3e:fc:b4:cf:53:3e:16:17:46:1a:ca:1e:7a:9e:37:85:a8:
         d5:cf:8b:12:5f:9c:a6:17:72:0b:45:74:00:1b:28:43:5b:e3:
         29:1e:e1:a1:48:8f:50:9b:f6:d2:88:86:6c:59:43:9d:e0:ca:
         eb:eb:3d:c3:ef:d3:9f:24:d1:53:42:0f:27:47:1e:18:e5:2a:
         4e:16:42:35:7f:61:87:9d:31:c2:7e:5f:50:08:f7:59:35:dc:
         4d:45:e6:74:78:64:d6:5f:ad:07:26:fb:f1:96:43:dd:91:b7:
         c8:5d:f0:2d:1f:bf:78:3f:41:65:bf:fd:ad:6e:52:8a:0b:1b:
         0f:72:8c:6b:f2:fa:dc:7d:6e:c7:e8:e9:ae:ae:22:5b:86:03:
         40:c7:1d:2f:12:c2:98:79:79:2e:a9:6a:0d:b4:ec:0f:61:8e:
         7e:e4:6e:d0:54:3a:92:01:68:01:0a:bc:66:b9:6e:65:74:a0:
         df:d1:c2:fe:2f:82:d0:01:b1:57:6d:09:f5:a3:b8:e0:d7:35:
         a5:a8:61:50:21:cd:5d:ce:10:2b:5a:e5:91:37:eb:8b:b9:8b:
         52:91:2e:35:35:53:72:a6:9d:97:3c:42:e0:aa:cf:92:68:f5:
         b4:90:81:9d
-----BEGIN CERTIFICATE-----
MIIDeDCCAmACAQEwDQYJKoZIhvcNAQENBQAwgYExCzAJBgNVBAYTAlVTMQswCQYD
VQQIDAJDQTEVMBMGA1UECgwMT3BlbiB2U3dpdGNoMREwDwYDVQQLDAhzd2l0Y2hj
YTE7MDkGA1UEAwwyT1ZTIHN3aXRjaGNhIENBIENlcnRpZmljYXRlICgyMDE5IERl
YyAyMyAwOTo1MDoxMikwHhcNMTkxMjIzMDk1MDEyWhcNMjkxMjIwMDk1MDEyWjCB
gTELMAkGA1UEBhMCVVMxCzAJBgNVBAgMAkNBMRUwEwYDVQQKDAxPcGVuIHZTd2l0
Y2gxETAPBgNVBAsMCHN3aXRjaGNhMTswOQYDVQQDDDJPVlMgc3dpdGNoY2EgQ0Eg
Q2VydGlmaWNhdGUgKDIwMTkgRGVjIDIzIDA5OjUwOjEyKTCCASIwDQYJKoZIhvcN
AQEBBQADggEPADCCAQoCggEBAKhPNSYM1GxoHxVDr4K1YJ1nZmW7kuhm9v4kYNuT
1BwwTvQFYYeCJwxvjPIFE3+VzCTfko3m4blAGqq3+jU7Q3+VpiyOHdIA4JB+CamL
VKIYK3EaRBz8JRHpbyDGjSpZojRR2ATaKZiS6e1Wuu89hcIHkQKkaN8HAV/EORUk
z57yfboOFRqVpJd06g75G9SY6SIRkeP4QeiELsBjur3/Un7sk7YLOcn2WiJEdfsb
CnV0NanTF5rj9ct8iFd43nLyRlWgukeZi3kAs02OsWFfxIo911BHgi61E5kZgone
Z3k9xEUAxNPHv2J+94fOrhneWw/DOLyvKolmlg9/fsSsmIUCAwEAATANBgkqhkiG
9w0BAQ0FAAOCAQEAPaCkCndEE+dXyidlmvcr/UJHcD78tM9TPhYXRhrKHnqeN4Wo
1c+LEl+cphdyC0V0ABsoQ1vjKR7hoUiPUJv20oiGbFlDneDK6+s9w+/TnyTRU0IP
J0ceGOUqThZCNX9hh50xwn5fUAj3WTXcTUXmdHhk1l+tByb78ZZD3ZG3yF3wLR+/
eD9BZb/9rW5SigsbD3KMa/L63H1ux+jprq4iW4YDQMcdLxLCmHl5LqlqDbTsD2GO
fuRu0FQ6kgFoAQq8ZrluZXSg39HC/i+C0AGxV20J9aO44Nc1pahhUCHNXc4QK1rl
kTfri7mLUpEuNTVTcqadlzxC4KrPkmj1tJCBnQ==
-----END CERTIFICATE-----
