Certificate Request:
    Data:
        Version: 1 (0x0)
        Subject: C = US, ST = CA, L = Palo Alto, O = Open vSwitch, OU = Open vSwitch certifier, CN = ctl id:64629436-0aba-49dc-bacc-b14e98fd20c5
        Subject Public Key Info:
            Public Key Algorithm: rsaEncryption
                RSA Public-Key: (2048 bit)
                Modulus:
                    00:9f:96:3a:ad:f7:ec:20:ac:5a:91:a1:65:c1:da:
                    fe:af:65:42:06:9c:fb:03:cd:da:ec:dd:a6:22:1c:
                    11:5d:ec:8b:2f:c2:2c:7b:fb:60:41:d5:af:0f:46:
                    1a:1f:69:8d:09:5a:4f:35:72:0d:84:54:f8:95:a2:
                    1c:f3:3e:44:c3:ca:d8:57:7e:2c:38:28:fd:ae:f7:
                    57:6b:d9:76:e0:7c:49:2c:9d:e1:31:7f:1c:9f:e9:
                    b9:17:0c:71:d4:76:48:e0:df:6f:22:34:bd:81:ef:
                    51:99:1f:24:2c:1a:0e:eb:ab:f6:38:9b:59:87:b2:
                    e0:4c:f1:b6:d5:e3:d6:da:82:c6:05:94:e8:85:fe:
                    d9:93:e3:3f:b9:a6:b6:be:d7:c0:cd:17:16:0f:3c:
                    30:1b:3b:8a:25:9c:60:5c:fe:13:15:c1:13:a9:26:
                    5c:c7:cf:17:bd:a3:df:b8:e3:34:34:bb:07:99:9a:
                    8d:2e:ea:e6:07:fc:76:72:52:09:1f:2b:3b:25:a5:
                    c8:31:06:24:ca:aa:f9:67:8a:d6:33:44:b1:0d:31:
                    7e:da:8a:b3:1c:a0:4d:bc:22:73:e2:4c:c1:a5:27:
                    86:99:ae:54:f6:16:c8:c5:94:b1:e6:a8:0a:4f:de:
                    79:0d:b8:e3:00:99:46:30:e5:fc:e1:59:98:4b:bc:
                    f6:03
                Exponent: 65537 (0x10001)
        Attributes:
            a0:00
    Signature Algorithm: sha256WithRSAEncryption
         8c:13:9e:40:1e:33:16:03:9e:7c:c5:1f:e6:66:03:a0:30:ef:
         da:68:9e:34:7d:00:f6:97:8f:05:00:78:9a:0e:34:a7:d4:2d:
         0e:ee:7b:ed:64:27:29:0a:1e:42:76:4d:68:5c:31:52:f5:e9:
         6c:fd:83:16:c1:91:89:c1:bc:8a:8b:3c:fd:5e:46:6e:06:b0:
         ee:a9:a4:39:80:80:8d:21:b8:85:92:90:c6:0d:82:db:e4:56:
         a1:29:e9:ca:fc:f6:d9:15:21:e3:df:96:62:7d:fa:30:42:f0:
         45:34:02:75:e2:ef:4e:11:47:77:d9:62:91:8d:47:32:33:0c:
         c4:89:d7:8b:0a:91:2b:ec:d7:49:14:81:24:34:d0:34:58:b6:
         da:e7:47:b4:e6:96:d7:18:b4:8d:08:17:e3:12:31:5d:1a:73:
         5e:dd:cf:69:57:5f:33:34:e1:ec:55:79:d0:3f:76:55:77:53:
         ba:f7:89:4c:37:d5:58:23:e1:d5:f9:dc:df:7d:c1:9d:11:b9:
         38:ab:eb:6e:6c:74:b7:e3:46:d5:ec:70:ed:05:b1:dc:27:bd:
         b3:93:bf:6d:bd:a4:3a:80:60:c9:36:41:5b:15:bc:02:d9:6c:
         4b:8d:fb:66:42:49:f7:66:1b:8f:5f:7d:75:9b:9c:69:ce:5f:
         f5:81:63:e1
-----BEGIN CERTIFICATE REQUEST-----
MIIC4jCCAcoCAQAwgZwxCzAJBgNVBAYTAlVTMQswCQYDVQQIDAJDQTESMBAGA1UE
BwwJUGFsbyBBbHRvMRUwEwYDVQQKDAxPcGVuIHZTd2l0Y2gxHzAdBgNVBAsMFk9w
ZW4gdlN3aXRjaCBjZXJ0aWZpZXIxNDAyBgNVBAMMK2N0bCBpZDo2NDYyOTQzNi0w
YWJhLTQ5ZGMtYmFjYy1iMTRlOThmZDIwYzUwggEiMA0GCSqGSIb3DQEBAQUAA4IB
DwAwggEKAoIBAQCfljqt9+wgrFqRoWXB2v6vZUIGnPsDzdrs3aYiHBFd7Isvwix7
+2BB1a8PRhofaY0JWk81cg2EVPiVohzzPkTDythXfiw4KP2u91dr2XbgfEksneEx
fxyf6bkXDHHUdkjg328iNL2B71GZHyQsGg7rq/Y4m1mHsuBM8bbV49bagsYFlOiF
/tmT4z+5pra+18DNFxYPPDAbO4olnGBc/hMVwROpJlzHzxe9o9+44zQ0uweZmo0u
6uYH/HZyUgkfKzslpcgxBiTKqvlnitYzRLENMX7airMcoE28InPiTMGlJ4aZrlT2
FsjFlLHmqApP3nkNuOMAmUYw5fzhWZhLvPYDAgMBAAGgADANBgkqhkiG9w0BAQsF
AAOCAQEAjBOeQB4zFgOefMUf5mYDoDDv2mieNH0A9pePBQB4mg40p9QtDu577WQn
KQoeQnZNaFwxUvXpbP2DFsGRicG8ios8/V5Gbgaw7qmkOYCAjSG4hZKQxg2C2+RW
oSnpyvz22RUh49+WYn36MELwRTQCdeLvThFHd9likY1HMjMMxInXiwqRK+zXSRSB
JDTQNFi22udHtOaW1xi0jQgX4xIxXRpzXt3PaVdfMzTh7FV50D92VXdTuveJTDfV
WCPh1fnc333BnRG5OKvrbmx0t+NG1exw7QWx3Ce9s5O/bb2kOoBgyTZBWxW8Atls
S437ZkJJ92Ybj199dZucac5f9YFj4Q==
-----END CERTIFICATE REQUEST-----
