Certificate:
    Data:
        Version: 1 (0x0)
        Serial Number: 4 (0x4)
        Signature Algorithm: sha512WithRSAEncryption
        Issuer: C=US, ST=CA, O=Open vSwitch, OU=controllerca, CN=OVS controllerca CA Certificate (2019 Dec 23 09:50:12)
        Validity
            Not Before: Jan  5 00:08:25 2020 GMT
            Not After : Jan  2 00:08:25 2030 GMT
        Subject: C=US, ST=CA, O=Open vSwitch, OU=Open vSwitch certifier, CN=ctl id:64629436-0aba-49dc-bacc-b14e98fd20c5
        Subject Public Key Info:
            Public Key Algorithm: rsaEncryption
                RSA Public-Key: (2048 bit)
                Modulus:
                    00:9f:96:3a:ad:f7:ec:20:ac:5a:91:a1:65:c1:da:
                    fe:af:65:42:06:9c:fb:03:cd:da:ec:dd:a6:22:1c:
                    11:5d:ec:8b:2f:c2:2c:7b:fb:60:41:d5:af:0f:46:
                    1a:1f:69:8d:09:5a:4f:35:72:0d:84:54:f8:95:a2:
                    1c:f3:3e:44:c3:ca:d8:57:7e:2c:38:28:fd:ae:f7:
                    57:6b:d9:76:e0:7c:49:2c:9d:e1:31:7f:1c:9f:e9:
                    b9:17:0c:71:d4:76:48:e0:df:6f:22:34:bd:81:ef:
                    51:99:1f:24:2c:1a:0e:eb:ab:f6:38:9b:59:87:b2:
                    e0:4c:f1:b6:d5:e3:d6:da:82:c6:05:94:e8:85:fe:
                    d9:93:e3:3f:b9:a6:b6:be:d7:c0:cd:17:16:0f:3c:
                    30:1b:3b:8a:25:9c:60:5c:fe:13:15:c1:13:a9:26:
                    5c:c7:cf:17:bd:a3:df:b8:e3:34:34:bb:07:99:9a:
                    8d:2e:ea:e6:07:fc:76:72:52:09:1f:2b:3b:25:a5:
                    c8:31:06:24:ca:aa:f9:67:8a:d6:33:44:b1:0d:31:
                    7e:da:8a:b3:1c:a0:4d:bc:22:73:e2:4c:c1:a5:27:
                    86:99:ae:54:f6:16:c8:c5:94:b1:e6:a8:0a:4f:de:
                    79:0d:b8:e3:00:99:46:30:e5:fc:e1:59:98:4b:bc:
                    f6:03
                Exponent: 65537 (0x10001)
    Signature Algorithm: sha512WithRSAEncryption
         58:b3:aa:6e:dd:a6:29:6d:67:fe:61:9d:95:d4:da:22:3e:4c:
         eb:fb:77:36:12:0f:00:1e:f6:cb:0b:df:9e:3e:22:46:6d:db:
         f3:63:59:75:ef:c4:07:8f:67:63:80:56:02:02:56:b7:e1:7c:
         4c:54:15:f0:59:ce:d8:75:92:7a:78:71:01:89:96:a3:07:31:
         cd:e6:a9:26:29:36:31:2c:67:80:23:e9:3a:73:50:7d:b3:a3:
         78:9b:ce:2f:81:f4:66:d6:aa:3d:1a:6e:47:24:7e:67:26:c5:
         01:dc:ad:bc:7c:d4:13:10:05:fd:62:bb:f0:3b:35:4c:40:1d:
         d0:42:1b:ae:35:b2:a8:1f:ae:ab:6e:52:1c:9a:d8:fc:fc:b6:
         d7:df:72:98:51:9f:8b:aa:8b:54:a5:0b:e3:1a:6b:52:8f:ab:
         40:1a:47:10:f2:f9:0e:36:e3:95:f5:b7:c8:cf:82:c0:90:93:
         9b:20:64:46:d6:00:37:a3:7f:45:24:03:1b:68:2b:31:de:de:
         f1:31:a7:45:6c:3d:27:04:e5:cc:e1:95:d8:93:cc:67:83:9a:
         a0:18:c2:6f:98:08:67:41:ac:f0:1d:4d:ec:8a:21:a7:71:fa:
         c4:83:b3:57:28:3e:23:42:43:df:5f:32:61:66:e0:07:19:47:
         d3:2f:66:c0
-----BEGIN CERTIFICATE-----
MIIDhzCCAm8CAQQwDQYJKoZIhvcNAQENBQAwgYkxCzAJBgNVBAYTAlVTMQswCQYD
VQQIDAJDQTEVMBMGA1UECgwMT3BlbiB2U3dpdGNoMRUwEwYDVQQLDAxjb250cm9s
bGVyY2ExPzA9BgNVBAMMNk9WUyBjb250cm9sbGVyY2EgQ0EgQ2VydGlmaWNhdGUg
KDIwMTkgRGVjIDIzIDA5OjUwOjEyKTAeFw0yMDAxMDUwMDA4MjVaFw0zMDAxMDIw
MDA4MjVaMIGIMQswCQYDVQQGEwJVUzELMAkGA1UECAwCQ0ExFTATBgNVBAoMDE9w
ZW4gdlN3aXRjaDEfMB0GA1UECwwWT3BlbiB2U3dpdGNoIGNlcnRpZmllcjE0MDIG
A1UEAwwrY3RsIGlkOjY0NjI5NDM2LTBhYmEtNDlkYy1iYWNjLWIxNGU5OGZkMjBj
NTCCASIwDQYJKoZIhvcNAQEBBQADggEPADCCAQoCggEBAJ+WOq337CCsWpGhZcHa
/q9lQgac+wPN2uzdpiIcEV3siy/CLHv7YEHVrw9GGh9pjQlaTzVyDYRU+JWiHPM+
RMPK2Fd+LDgo/a73V2vZduB8SSyd4TF/HJ/puRcMcdR2SODfbyI0vYHvUZkfJCwa
Duur9jibWYey4EzxttXj1tqCxgWU6IX+2ZPjP7mmtr7XwM0XFg88MBs7iiWcYFz+
ExXBE6kmXMfPF72j37jjNDS7B5majS7q5gf8dnJSCR8rOyWlyDEGJMqq+WeK1jNE
sQ0xftqKsxygTbwic+JMwaUnhpmuVPYWyMWUseaoCk/eeQ244wCZRjDl/OFZmEu8
9gMCAwEAATANBgkqhkiG9w0BAQ0FAAOCAQEAWLOqbt2mKW1n/mGdldTaIj5M6/t3
NhIPAB72ywvfnj4iRm3b82NZde/EB49nY4BWAgJWt+F8TFQV8FnO2HWSenhxAYmW
owcxzeapJik2MSxngCPpOnNQfbOjeJvOL4H0ZtaqPRpuRyR+ZybFAdytvHzUExAF
/WK78Ds1TEAd0EIbrjWyqB+uq25SHJrY/Py2199ymFGfi6qLVKUL4xprUo+rQBpH
EPL5DjbjlfW3yM+CwJCTmyBkRtYAN6N/RSQDG2grMd7e8TGnRWw9JwTlzOGV2JPM
Z4OaoBjCb5gIZ0Gs8B1N7Iohp3H6xIOzVyg+I0JD318yYWbgBxlH0y9mwA==
-----END CERTIFICATE-----
