Certificate:
    Data:
        Version: 1 (0x0)
        Serial Number: 2 (0x2)
        Signature Algorithm: sha512WithRSAEncryption
        Issuer: C=US, ST=CA, O=Open vSwitch, OU=switchca, CN=OVS switchca CA Certificate (2019 Dec 23 09:50:12)
        Validity
            Not Before: Jan  5 00:09:34 2020 GMT
            Not After : Jan  2 00:09:34 2030 GMT
        Subject: C=US, ST=CA, O=Open vSwitch, OU=Open vSwitch certifier, CN=sc id:d8ed20d1-9aa6-4c25-ad65-474a11fb5207
        Subject Public Key Info:
            Public Key Algorithm: rsaEncryption
                RSA Public-Key: (2048 bit)
                Modulus:
                    00:d2:4f:f9:db:4e:93:9c:2d:0b:bd:d9:16:bc:f5:
                    b7:9e:c1:0d:09:24:16:bc:ed:6a:0f:bf:3a:6f:26:
                    8d:48:21:95:47:4a:ef:03:35:3a:5e:b8:48:ce:46:
                    8d:09:cf:f5:14:dc:0b:65:27:72:8b:38:d3:bc:ce:
                    c8:4d:2a:81:d0:f8:75:bf:07:83:7b:15:4b:a0:fc:
                    d2:6c:c1:ca:23:b2:42:c5:63:f7:6d:d2:dd:b3:f6:
                    57:93:98:09:d9:b0:af:a9:e2:da:63:b9:85:de:b2:
                    dc:78:63:19:18:06:cd:2b:08:a0:67:fd:7c:8a:2c:
                    16:75:5a:34:72:73:2b:9b:05:e1:e5:90:53:09:26:
                    ba:2e:40:8b:a1:94:9e:ff:14:21:ad:79:97:7e:c8:
                    90:28:35:b6:46:c4:06:01:59:34:3b:a1:6b:7c:a5:
                    c2:58:f3:bb:1f:19:c1:0e:62:d5:3b:44:ac:ba:f5:
                    29:6e:ce:61:5f:fd:8d:25:9d:d7:32:c6:1f:5f:62:
                    18:8b:ea:93:9c:98:6e:d8:4b:1b:c0:ff:06:ac:77:
                    2c:b3:97:25:05:02:c5:14:ea:75:8a:2c:29:77:64:
                    94:94:e2:42:a3:54:74:1b:fd:63:f0:be:34:c4:d3:
                    f4:a6:b4:43:df:c0:cf:fc:d9:e6:b1:08:a0:d0:09:
                    81:4b
                Exponent: 65537 (0x10001)
    Signature Algorithm: sha512WithRSAEncryption
         64:c0:f4:0c:36:c2:93:5f:f0:5d:06:ff:5f:ba:c9:fc:0e:81:
         b9:75:17:6f:ea:6e:74:d3:c3:38:ff:69:0e:4a:f3:2a:a9:93:
         bb:48:d2:2a:63:aa:72:56:46:32:4c:01:63:3d:d2:03:23:43:
         9b:f3:de:df:e2:d4:44:3e:a4:95:56:21:85:8a:01:4b:0b:91:
         f1:cf:66:7d:65:65:71:a5:3c:88:c6:03:9e:a8:ce:27:ef:4d:
         0d:26:53:1a:56:8c:ba:4f:97:fc:6d:38:0d:67:a8:03:4a:57:
         f9:e9:59:80:30:d6:91:ed:9a:0d:81:4f:68:2c:d7:4e:21:35:
         b9:10:e6:3a:e6:70:b5:07:ef:d7:77:11:55:82:a3:ef:9e:76:
         30:18:b6:7d:1a:47:7c:ad:53:97:53:89:48:d0:e7:31:9a:7e:
         dc:85:28:39:12:06:e3:ae:48:6a:29:8d:2b:c1:c0:11:a0:a3:
         b8:ac:1d:e0:ad:49:07:f3:41:5a:fb:70:21:0f:77:08:4b:d5:
         58:4e:5d:1c:89:25:30:e1:d7:57:14:ae:bc:c9:b6:36:2e:4e:
         9c:04:0f:48:8f:9c:d2:25:9a:b9:3f:38:d1:ca:9f:c3:e8:b4:
         ab:43:5a:4c:1f:2a:6b:be:52:f1:a1:f9:2a:6a:50:54:8f:9a:
         3b:70:ae:06
-----BEGIN CERTIFICATE-----
MIIDfjCCAmYCAQIwDQYJKoZIhvcNAQENBQAwgYExCzAJBgNVBAYTAlVTMQswCQYD
VQQIDAJDQTEVMBMGA1UECgwMT3BlbiB2U3dpdGNoMREwDwYDVQQLDAhzd2l0Y2hj
YTE7MDkGA1UEAwwyT1ZTIHN3aXRjaGNhIENBIENlcnRpZmljYXRlICgyMDE5IERl
YyAyMyAwOTo1MDoxMikwHhcNMjAwMTA1MDAwOTM0WhcNMzAwMTAyMDAwOTM0WjCB
hzELMAkGA1UEBhMCVVMxCzAJBgNVBAgMAkNBMRUwEwYDVQQKDAxPcGVuIHZTd2l0
Y2gxHzAdBgNVBAsMFk9wZW4gdlN3aXRjaCBjZXJ0aWZpZXIxMzAxBgNVBAMMKnNj
IGlkOmQ4ZWQyMGQxLTlhYTYtNGMyNS1hZDY1LTQ3NGExMWZiNTIwNzCCASIwDQYJ
KoZIhvcNAQEBBQADggEPADCCAQoCggEBANJP+dtOk5wtC73ZFrz1t57BDQkkFrzt
ag+/Om8mjUghlUdK7wM1Ol64SM5GjQnP9RTcC2Uncos407zOyE0qgdD4db8Hg3sV
S6D80mzByiOyQsVj923S3bP2V5OYCdmwr6ni2mO5hd6y3HhjGRgGzSsIoGf9fIos
FnVaNHJzK5sF4eWQUwkmui5Ai6GUnv8UIa15l37IkCg1tkbEBgFZNDuha3ylwljz
ux8ZwQ5i1TtErLr1KW7OYV/9jSWd1zLGH19iGIvqk5yYbthLG8D/Bqx3LLOXJQUC
xRTqdYosKXdklJTiQqNUdBv9Y/C+NMTT9Ka0Q9/Az/zZ5rEIoNAJgUsCAwEAATAN
BgkqhkiG9w0BAQ0FAAOCAQEAZMD0DDbCk1/wXQb/X7rJ/A6BuXUXb+pudNPDOP9p
DkrzKqmTu0jSKmOqclZGMkwBYz3SAyNDm/Pe3+LURD6klVYhhYoBSwuR8c9mfWVl
caU8iMYDnqjOJ+9NDSZTGlaMuk+X/G04DWeoA0pX+elZgDDWke2aDYFPaCzXTiE1
uRDmOuZwtQfv13cRVYKj7552MBi2fRpHfK1Tl1OJSNDnMZp+3IUoORIG465IaimN
K8HAEaCjuKwd4K1JB/NBWvtwIQ93CEvVWE5dHIklMOHXVxSuvMm2Ni5OnAQPSI+c
0iWauT840cqfw+i0q0NaTB8qa75S8aH5KmpQVI+aO3CuBg==
-----END CERTIFICATE-----
