Certificate Request:
    Data:
        Version: 1 (0x0)
        Subject: C = US, ST = CA, L = Palo Alto, O = Open vSwitch, OU = Open vSwitch certifier, CN = sc id:d8ed20d1-9aa6-4c25-ad65-474a11fb5207
        Subject Public Key Info:
            Public Key Algorithm: rsaEncryption
                RSA Public-Key: (2048 bit)
                Modulus:
                    00:d2:4f:f9:db:4e:93:9c:2d:0b:bd:d9:16:bc:f5:
                    b7:9e:c1:0d:09:24:16:bc:ed:6a:0f:bf:3a:6f:26:
                    8d:48:21:95:47:4a:ef:03:35:3a:5e:b8:48:ce:46:
                    8d:09:cf:f5:14:dc:0b:65:27:72:8b:38:d3:bc:ce:
                    c8:4d:2a:81:d0:f8:75:bf:07:83:7b:15:4b:a0:fc:
                    d2:6c:c1:ca:23:b2:42:c5:63:f7:6d:d2:dd:b3:f6:
                    57:93:98:09:d9:b0:af:a9:e2:da:63:b9:85:de:b2:
                    dc:78:63:19:18:06:cd:2b:08:a0:67:fd:7c:8a:2c:
                    16:75:5a:34:72:73:2b:9b:05:e1:e5:90:53:09:26:
                    ba:2e:40:8b:a1:94:9e:ff:14:21:ad:79:97:7e:c8:
                    90:28:35:b6:46:c4:06:01:59:34:3b:a1:6b:7c:a5:
                    c2:58:f3:bb:1f:19:c1:0e:62:d5:3b:44:ac:ba:f5:
                    29:6e:ce:61:5f:fd:8d:25:9d:d7:32:c6:1f:5f:62:
                    18:8b:ea:93:9c:98:6e:d8:4b:1b:c0:ff:06:ac:77:
                    2c:b3:97:25:05:02:c5:14:ea:75:8a:2c:29:77:64:
                    94:94:e2:42:a3:54:74:1b:fd:63:f0:be:34:c4:d3:
                    f4:a6:b4:43:df:c0:cf:fc:d9:e6:b1:08:a0:d0:09:
                    81:4b
                Exponent: 65537 (0x10001)
        Attributes:
            a0:00
    Signature Algorithm: sha256WithRSAEncryption
         c1:83:c5:8d:56:32:61:39:c3:b8:e4:fe:d3:26:7b:ab:be:8d:
         45:a3:62:b3:06:a1:8f:58:d8:8f:99:a9:5d:66:ff:d0:20:91:
         b2:93:47:3a:17:13:52:8f:79:61:21:f6:c1:70:11:dc:69:91:
         25:50:da:6a:67:a5:bf:f3:67:87:b9:57:1d:39:88:df:cc:0c:
         7c:c7:a0:65:8a:a1:23:80:aa:21:8b:51:0d:a0:0a:53:94:f1:
         09:1b:85:0f:8a:27:50:47:e9:3c:dd:74:b8:ee:87:d4:ce:87:
         2f:1b:4b:c9:ea:6e:f9:fc:0b:c1:31:90:9d:c3:21:0f:8e:41:
         16:7f:6f:9f:ed:d4:17:58:5e:c3:ea:bb:9b:04:f6:ec:58:83:
         84:cf:91:90:ec:36:a8:1b:62:cd:cb:71:ed:41:72:0b:45:22:
         2d:c3:f2:30:af:14:17:30:78:bb:cf:85:e0:e6:2c:22:ee:87:
         b9:52:29:17:8a:1e:0c:f6:48:d3:89:ff:4b:b0:0e:88:8d:14:
         a5:ce:9a:5c:f1:0b:09:22:16:b7:04:5a:33:b2:0b:d3:78:40:
         0b:4a:6e:43:db:8c:ea:9f:5d:3b:e3:99:9b:b3:1c:ca:2f:1c:
         4e:36:44:8c:e5:33:a5:58:be:9c:65:93:f3:f8:27:15:21:6d:
         d1:4a:f7:6e
-----BEGIN CERTIFICATE REQUEST-----
MIIC4TCCAckCAQAwgZsxCzAJBgNVBAYTAlVTMQswCQYDVQQIDAJDQTESMBAGA1UE
BwwJUGFsbyBBbHRvMRUwEwYDVQQKDAxPcGVuIHZTd2l0Y2gxHzAdBgNVBAsMFk9w
ZW4gdlN3aXRjaCBjZXJ0aWZpZXIxMzAxBgNVBAMMKnNjIGlkOmQ4ZWQyMGQxLTlh
YTYtNGMyNS1hZDY1LTQ3NGExMWZiNTIwNzCCASIwDQYJKoZIhvcNAQEBBQADggEP
ADCCAQoCggEBANJP+dtOk5wtC73ZFrz1t57BDQkkFrztag+/Om8mjUghlUdK7wM1
Ol64SM5GjQnP9RTcC2Uncos407zOyE0qgdD4db8Hg3sVS6D80mzByiOyQsVj923S
3bP2V5OYCdmwr6ni2mO5hd6y3HhjGRgGzSsIoGf9fIosFnVaNHJzK5sF4eWQUwkm
ui5Ai6GUnv8UIa15l37IkCg1tkbEBgFZNDuha3ylwljzux8ZwQ5i1TtErLr1KW7O
YV/9jSWd1zLGH19iGIvqk5yYbthLG8D/Bqx3LLOXJQUCxRTqdYosKXdklJTiQqNU
dBv9Y/C+NMTT9Ka0Q9/Az/zZ5rEIoNAJgUsCAwEAAaAAMA0GCSqGSIb3DQEBCwUA
A4IBAQDBg8WNVjJhOcO45P7TJnurvo1Fo2KzBqGPWNiPmaldZv/QIJGyk0c6FxNS
j3lhIfbBcBHcaZElUNpqZ6W/82eHuVcdOYjfzAx8x6BliqEjgKohi1ENoApTlPEJ
G4UPiidQR+k83XS47ofUzocvG0vJ6m75/AvBMZCdwyEPjkEWf2+f7dQXWF7D6rub
BPbsWIOEz5GQ7DaoG2LNy3HtQXILRSItw/IwrxQXMHi7z4Xg5iwi7oe5UikXih4M
9kjTif9LsA6IjRSlzppc8QsJIha3BFozsgvTeEALSm5D24zqn10745mbsxzKLxxO
NkSM5TOlWL6cZZPz+CcVIW3RSvdu
-----END CERTIFICATE REQUEST-----
